; Function Attrs: mustprogress uwtable
define noundef zeroext i1 @_ZN4YAML12EmitterState17SetBoolCaseFormatENS_13EMITTER_MANIPENS_8FmtScope5valueE(ptr noundef nonnull align 8 dereferenceable(224) %0, i32 noundef %1, i32 noundef %2) local_unnamed_addr #4 align 2 {
  %.off = add i32 %1, -16
  %switch = icmp ult i32 %.off, 3
  br i1 %switch, label %4, label %6

4:                                                ; preds = %3
  %5 = getelementptr inbounds nuw i8, ptr %0, i64 56
  tail call void @_ZN4YAML12EmitterState4_SetINS_13EMITTER_MANIPEEEvRNS_7SettingIT_EES4_NS_8FmtScope5valueE(ptr noundef nonnull align 8 dereferenceable(224) %0, ptr noundef nonnull align 4 dereferenceable(4) %5, i32 noundef %1, i32 noundef %2)
  br label %6

6:                                                ; preds = %3, %4
  ret i1 %switch
}